; Function Attrs: mustprogress nounwind sspstrong willreturn uwtable
define dso_local void @rb_parser_st_free_table(ptr noundef captures(none) %0) local_unnamed_addr #4 {
  %2 = getelementptr inbounds nuw i8, ptr %0, i64 24
  %3 = load ptr, ptr %2, align 8, !tbaa !23
  tail call void @free(ptr noundef %3) #25
  %4 = getelementptr inbounds nuw i8, ptr %0, i64 48
  %5 = load ptr, ptr %4, align 8, !tbaa !25
  tail call void @free(ptr noundef %5) #25
  tail call void @free(ptr noundef %0) #25
  ret void
}